; Function Attrs: mustprogress nounwind uwtable
define void @_ZN7rocksdb6TracerD2Ev(ptr noundef nonnull align 8 captures(none) dereferenceable(72) %0) unnamed_addr #1 align 2 personality ptr @__gxx_personality_v0 {
  %2 = getelementptr inbounds nuw i8, ptr %0, i64 40
  %3 = load ptr, ptr %2, align 8, !tbaa !133
  store ptr null, ptr %2, align 8, !tbaa !133
  %.not.i.i = icmp eq ptr %3, null
  br i1 %.not.i.i, label %_ZNSt10unique_ptrIN7rocksdb11TraceWriterESt14default_deleteIS1_EE5resetEPS1_.exit, label %_ZNKSt14default_deleteIN7rocksdb11TraceWriterEEclEPS1_.exit.i.i

_ZNKSt14default_deleteIN7rocksdb11TraceWriterEEclEPS1_.exit.i.i: ; preds = %1
  %4 = load ptr, ptr %3, align 8, !tbaa !84
  %5 = getelementptr inbounds nuw i8, ptr %4, i64 8
  %6 = load ptr, ptr %5, align 8
  tail call void %6(ptr noundef nonnull align 8 dereferenceable(8) %3) #24
  br label %_ZNSt10unique_ptrIN7rocksdb11TraceWriterESt14default_deleteIS1_EE5resetEPS1_.exit

_ZNSt10unique_ptrIN7rocksdb11TraceWriterESt14default_deleteIS1_EE5resetEPS1_.exit: ; preds = %1, %_ZNKSt14default_deleteIN7rocksdb11TraceWriterEEclEPS1_.exit.i.i
  %7 = getelementptr inbounds nuw i8, ptr %0, i64 64
  %8 = load ptr, ptr %7, align 8, !tbaa !69
  %.not.i.i1 = icmp eq ptr %8, null
  br i1 %.not.i.i1, label %_ZN7rocksdb6StatusD2Ev.exit, label %_ZNKSt14default_deleteIA_KcEclIS0_EENSt9enable_ifIXsr14is_convertibleIPA_T_PS1_EE5valueEvE4typeEPS5_.exit.i.i

_ZNKSt14default_deleteIA_KcEclIS0_EENSt9enable_ifIXsr14is_convertibleIPA_T_PS1_EE5valueEvE4typeEPS5_.exit.i.i: ; preds = %_ZNSt10unique_ptrIN7rocksdb11TraceWriterESt14default_deleteIS1_EE5resetEPS1_.exit
  tail call void @_ZdaPv(ptr noundef nonnull %8) #23
  br label %_ZN7rocksdb6StatusD2Ev.exit

_ZN7rocksdb6StatusD2Ev.exit:                      ; preds = %_ZNSt10unique_ptrIN7rocksdb11TraceWriterESt14default_deleteIS1_EE5resetEPS1_.exit, %_ZNKSt14default_deleteIA_KcEclIS0_EENSt9enable_ifIXsr14is_convertibleIPA_T_PS1_EE5valueEvE4typeEPS5_.exit.i.i
  store ptr null, ptr %7, align 8, !tbaa !69
  %9 = load ptr, ptr %2, align 8, !tbaa !133
  %.not.i = icmp eq ptr %9, null
  br i1 %.not.i, label %_ZNSt10unique_ptrIN7rocksdb11TraceWriterESt14default_deleteIS1_EED2Ev.exit, label %_ZNKSt14default_deleteIN7rocksdb11TraceWriterEEclEPS1_.exit.i

_ZNKSt14default_deleteIN7rocksdb11TraceWriterEEclEPS1_.exit.i: ; preds = %_ZN7rocksdb6StatusD2Ev.exit
  %10 = load ptr, ptr %9, align 8, !tbaa !84
  %11 = getelementptr inbounds nuw i8, ptr %10, i64 8
  %12 = load ptr, ptr %11, align 8
  tail call void %12(ptr noundef nonnull align 8 dereferenceable(8) %9) #24
  br label %_ZNSt10unique_ptrIN7rocksdb11TraceWriterESt14default_deleteIS1_EED2Ev.exit

_ZNSt10unique_ptrIN7rocksdb11TraceWriterESt14default_deleteIS1_EED2Ev.exit: ; preds = %_ZN7rocksdb6StatusD2Ev.exit, %_ZNKSt14default_deleteIN7rocksdb11TraceWriterEEclEPS1_.exit.i
  store ptr null, ptr %2, align 8, !tbaa !133
  ret void
}